; Function Attrs: nounwind sspstrong uwtable
define internal fastcc i64 @io_buffer_read_f64(ptr noundef readonly captures(none) %0, i64 noundef %1, ptr noundef nonnull captures(none) %2) unnamed_addr #0 {
  %4 = load i64, ptr %2, align 8, !tbaa !22
  %5 = add i64 %4, 8
  %6 = icmp ugt i64 %5, %1
  br i1 %6, label %7, label %io_buffer_validate_type.exit

7:                                                ; preds = %3
  %8 = load i64, ptr @rb_eArgError, align 8, !tbaa !22
  tail call void (i64, ptr, ...) @rb_raise(i64 noundef %8, ptr noundef nonnull @.str.138, i64 noundef %5, i64 noundef %1) #26
  unreachable

io_buffer_validate_type.exit:                     ; preds = %3
  %9 = getelementptr i8, ptr %0, i64 %4
  %10 = load double, ptr %9, align 1
  store i64 %5, ptr %2, align 8, !tbaa !22
  %11 = bitcast double %10 to i64
  %cond.i = icmp eq i64 %11, 3458764513820540928
  br i1 %cond.i, label %23, label %12

12:                                               ; preds = %io_buffer_validate_type.exit
  %13 = lshr i64 %11, 60
  %14 = trunc nuw nsw i64 %13 to i32
  %15 = and i32 %14, 7
  %16 = add nsw i32 %15, -3
  %.not7.i = icmp ult i32 %16, 2
  br i1 %.not7.i, label %17, label %21

17:                                               ; preds = %12
  %18 = tail call noundef i64 @llvm.fshl.i64(i64 range(i64 3458764513820540929, 3458764513820540928) %11, i64 range(i64 3458764513820540929, 3458764513820540928) %11, i64 3)
  %19 = and i64 %18, -4
  %20 = or disjoint i64 %19, 2
  br label %rb_float_new_inline.exit

21:                                               ; preds = %12
  %22 = icmp eq i64 %11, 0
  br i1 %22, label %rb_float_new_inline.exit, label %23

23:                                               ; preds = %21, %io_buffer_validate_type.exit
  %24 = tail call i64 @rb_float_new_in_heap(double noundef %10) #25
  br label %rb_float_new_inline.exit

rb_float_new_inline.exit:                         ; preds = %17, %21, %23
  %.0.i = phi i64 [ %24, %23 ], [ %20, %17 ], [ -9223372036854775806, %21 ]
  ret i64 %.0.i
}